target datalayout = "e-m:e-p270:32:32-p271:32:32-p272:64:64-i64:64-i128:128-f80:128-n8:16:32:64-S128"
target triple = "x86_64-pc-linux-gnu"

%"class.cv::Point_" = type { float, float }
%"struct.cv::Subdiv2D::Vertex" = type { i32, i32, %"class.cv::Point_" }

; Function Attrs: inlinehint mustprogress nounwind uwtable
define linkonce_odr hidden void @_ZN2cv6Point_IfEC2Ev(ptr noundef nonnull align 4 dereferenceable(8) %0) unnamed_addr #5 comdat align 2 {
  %2 = alloca ptr, align 8
  store ptr %0, ptr %2, align 8, !tbaa !17
  %3 = load ptr, ptr %2, align 8
  %4 = getelementptr inbounds nuw %"class.cv::Point_", ptr %3, i32 0, i32 0
  store float 0.000000e+00, ptr %4, align 4, !tbaa !44
  %5 = getelementptr inbounds nuw %"class.cv::Point_", ptr %3, i32 0, i32 1
  store float 0.000000e+00, ptr %5, align 4, !tbaa !45
  ret void
}

; Function Attrs: mustprogress uwtable
define void @_ZN2cv8Subdiv2D6VertexC2ENS_6Point_IfEEbi(ptr noundef nonnull align 4 dereferenceable(16) %0, <2 x float> %1, i1 noundef zeroext %2, i32 noundef %3) unnamed_addr #6 align 2 {
  %5 = alloca %"class.cv::Point_", align 4
  %6 = alloca ptr, align 8
  %7 = alloca i8, align 1
  %8 = alloca i32, align 4
  store <2 x float> %1, ptr %5, align 4
  store ptr %0, ptr %6, align 8, !tbaa !55
  %9 = zext i1 %2 to i8
  store i8 %9, ptr %7, align 1, !tbaa !57
  store i32 %3, ptr %8, align 4, !tbaa !8
  %10 = load ptr, ptr %6, align 8
  %11 = getelementptr inbounds nuw %"struct.cv::Subdiv2D::Vertex", ptr %10, i32 0, i32 2
  call void @_ZN2cv6Point_IfEC2Ev(ptr noundef nonnull align 4 dereferenceable(8) %11)
  %12 = load i32, ptr %8, align 4, !tbaa !8
  %13 = getelementptr inbounds nuw %"struct.cv::Subdiv2D::Vertex", ptr %10, i32 0, i32 0
  store i32 %12, ptr %13, align 4, !tbaa !29
  %14 = load i8, ptr %7, align 1, !tbaa !57, !range !58, !noundef !59
  %15 = trunc i8 %14 to i1
  %16 = zext i1 %15 to i32
  %17 = getelementptr inbounds nuw %"struct.cv::Subdiv2D::Vertex", ptr %10, i32 0, i32 1
  store i32 %16, ptr %17, align 4, !tbaa !56
  %18 = getelementptr inbounds nuw %"struct.cv::Subdiv2D::Vertex", ptr %10, i32 0, i32 2
  call void @llvm.memcpy.p0.p0.i64(ptr align 4 %18, ptr align 4 %5, i64 8, i1 false), !tbaa.struct !19
  ret void
}