; Function Attrs: mustprogress nofree norecurse nosync nounwind willreturn memory(argmem: write) uwtable
define void @_ZN2cv8Subdiv2D6VertexC2ENS_6Point_IfEEbi(ptr noundef nonnull writeonly align 4 captures(none) dereferenceable(16) initializes((0, 16)) %0, <2 x float> %1, i1 noundef zeroext %2, i32 noundef %3) unnamed_addr #10 align 2 {
  %5 = getelementptr inbounds nuw i8, ptr %0, i64 8
  store i32 %3, ptr %0, align 4, !tbaa !14
  %6 = zext i1 %2 to i32
  %7 = getelementptr inbounds nuw i8, ptr %0, i64 4
  store i32 %6, ptr %7, align 4, !tbaa !54
  store <2 x float> %1, ptr %5, align 4
  ret void
}